target datalayout = "e-m:e-p270:32:32-p271:32:32-p272:64:64-i64:64-i128:128-f80:128-n8:16:32:64-S128"
target triple = "x86_64-unknown-linux-gnu"

%class.btVector3 = type { [4 x float] }
%struct.btMultibodyLink = type { float, %class.btVector3, i32, %class.btQuaternion, %class.btVector3, %class.btVector3, %struct.btSpatialMotionVector, %struct.btSpatialMotionVector, [6 x %struct.btSpatialMotionVector], i32, i32, %class.btQuaternion, %class.btVector3, %class.btQuaternion, %class.btVector3, %class.btVector3, %class.btVector3, %class.btVector3, %class.btVector3, [7 x float], [7 x float], [6 x float], ptr, i32, i32, i32, i32, ptr, %class.btTransform, ptr, ptr, ptr, float, float, float, float, float, float }
%struct.btSpatialMotionVector = type { %class.btVector3, %class.btVector3 }
%class.btQuaternion = type { %class.btQuadWord }
%class.btQuadWord = type { [4 x float] }
%class.btTransform = type { %class.btMatrix3x3, %class.btVector3 }
%class.btMatrix3x3 = type { [3 x %class.btVector3] }
%class.btMultiBody = type { ptr, ptr, ptr, %class.btVector3, %class.btVector3, %class.btQuaternion, %class.btQuaternion, float, %class.btVector3, %class.btVector3, %class.btVector3, %class.btVector3, %class.btVector3, [4 x i8], %class.btAlignedObjectArray, %class.btAlignedObjectArray.0, %class.btAlignedObjectArray.0, %class.btAlignedObjectArray.0, %class.btAlignedObjectArray.4, %class.btAlignedObjectArray.8, %class.btMatrix3x3, %class.btMatrix3x3, %class.btMatrix3x3, %class.btMatrix3x3, i8, i8, i8, i8, i8, float, float, float, ptr, i32, i32, i32, float, float, i8, float, float, i8, i8, i32, i32, i8, i8, i8, i8 }
%class.btAlignedObjectArray = type <{ %class.btAlignedAllocator, [3 x i8], i32, i32, [4 x i8], ptr, i8, [7 x i8] }>
%class.btAlignedAllocator = type { i8 }
%class.btAlignedObjectArray.0 = type <{ %class.btAlignedAllocator.1, [3 x i8], i32, i32, [4 x i8], ptr, i8, [7 x i8] }>
%class.btAlignedAllocator.1 = type { i8 }
%class.btAlignedObjectArray.4 = type <{ %class.btAlignedAllocator.5, [3 x i8], i32, i32, [4 x i8], ptr, i8, [7 x i8] }>
%class.btAlignedAllocator.5 = type { i8 }
%class.btAlignedObjectArray.8 = type <{ %class.btAlignedAllocator.9, [3 x i8], i32, i32, [4 x i8], ptr, i8, [7 x i8] }>
%class.btAlignedAllocator.9 = type { i8 }
%class.btCollisionObject = type <{ ptr, %class.btTransform, %class.btTransform, %class.btVector3, %class.btVector3, %class.btVector3, i32, float, ptr, ptr, ptr, ptr, i32, i32, i32, i32, i32, float, float, float, float, float, float, float, i32, [4 x i8], ptr, i32, i32, i32, float, float, float, i32, [4 x i8], %class.btAlignedObjectArray.12, i32, %class.btVector3, [4 x i8] }>
%class.btAlignedObjectArray.12 = type <{ %class.btAlignedAllocator.13, [3 x i8], i32, i32, [4 x i8], ptr, i8, [7 x i8] }>
%class.btAlignedAllocator.13 = type { i8 }

; Function Attrs: mustprogress nounwind uwtable
define linkonce_odr dso_local noundef i32 @_ZNK20btAlignedObjectArrayI15btMultibodyLinkE4sizeEv(ptr noundef nonnull align 8 dereferenceable(25) %this) #1 comdat align 2 {
entry:
  %this.addr = alloca ptr, align 8
  store ptr %this, ptr %this.addr, align 8
  %this1 = load ptr, ptr %this.addr, align 8
  %m_size = getelementptr inbounds %class.btAlignedObjectArray, ptr %this1, i32 0, i32 2
  %0 = load i32, ptr %m_size, align 4
  ret i32 %0
}

; Function Attrs: mustprogress nounwind uwtable
define linkonce_odr dso_local void @_ZN17btCollisionObject17setCollisionFlagsEi(ptr noundef nonnull align 8 dereferenceable(372) %this, i32 noundef %flags) #1 comdat align 2 {
entry:
  %this.addr = alloca ptr, align 8
  %flags.addr = alloca i32, align 4
  store ptr %this, ptr %this.addr, align 8
  store i32 %flags, ptr %flags.addr, align 4
  %this1 = load ptr, ptr %this.addr, align 8
  %0 = load i32, ptr %flags.addr, align 4
  %m_collisionFlags = getelementptr inbounds %class.btCollisionObject, ptr %this1, i32 0, i32 12
  store i32 %0, ptr %m_collisionFlags, align 8
  ret void
}

; Function Attrs: mustprogress nounwind uwtable
define linkonce_odr dso_local noundef i32 @_ZNK17btCollisionObject17getCollisionFlagsEv(ptr noundef nonnull align 8 dereferenceable(372) %this) #1 comdat align 2 {
entry:
  %this.addr = alloca ptr, align 8
  store ptr %this, ptr %this.addr, align 8
  %this1 = load ptr, ptr %this.addr, align 8
  %m_collisionFlags = getelementptr inbounds %class.btCollisionObject, ptr %this1, i32 0, i32 12
  %0 = load i32, ptr %m_collisionFlags, align 8
  ret i32 %0
}

; Function Attrs: mustprogress nounwind uwtable
define linkonce_odr dso_local noundef ptr @_ZN11btMultiBody15getBaseColliderEv(ptr noundef nonnull align 8 dereferenceable(640) %this) #1 comdat align 2 {
entry:
  %this.addr = alloca ptr, align 8
  store ptr %this, ptr %this.addr, align 8
  %this1 = load ptr, ptr %this.addr, align 8
  %m_baseCollider = getelementptr inbounds %class.btMultiBody, ptr %this1, i32 0, i32 1
  %0 = load ptr, ptr %m_baseCollider, align 8
  ret ptr %0
}

; Function Attrs: mustprogress nounwind uwtable
define linkonce_odr dso_local void @_ZN23btMultiBodyLinkCollider14setDynamicTypeEi(ptr noundef nonnull align 8 dereferenceable(388) %this, i32 noundef %dynamicType) #1 comdat align 2 {
entry:
  %this.addr = alloca ptr, align 8
  %dynamicType.addr = alloca i32, align 4
  %oldFlags = alloca i32, align 4
  store ptr %this, ptr %this.addr, align 8
  store i32 %dynamicType, ptr %dynamicType.addr, align 4
  %this1 = load ptr, ptr %this.addr, align 8
  %call = call noundef i32 @_ZNK17btCollisionObject17getCollisionFlagsEv(ptr noundef nonnull align 8 dereferenceable(372) %this1)
  store i32 %call, ptr %oldFlags, align 4
  %0 = load i32, ptr %oldFlags, align 4
  %and = and i32 %0, -4
  store i32 %and, ptr %oldFlags, align 4
  %1 = load i32, ptr %oldFlags, align 4
  %2 = load i32, ptr %dynamicType.addr, align 4
  %or = or i32 %1, %2
  call void @_ZN17btCollisionObject17setCollisionFlagsEi(ptr noundef nonnull align 8 dereferenceable(372) %this1, i32 noundef %or)
  ret void
}

; Function Attrs: mustprogress nounwind uwtable
define linkonce_odr dso_local noundef nonnull align 8 dereferenceable(688) ptr @_ZN20btAlignedObjectArrayI15btMultibodyLinkEixEi(ptr noundef nonnull align 8 dereferenceable(25) %this, i32 noundef %n) #1 comdat align 2 {
entry:
  %this.addr = alloca ptr, align 8
  %n.addr = alloca i32, align 4
  store ptr %this, ptr %this.addr, align 8
  store i32 %n, ptr %n.addr, align 4
  %this1 = load ptr, ptr %this.addr, align 8
  %m_data = getelementptr inbounds %class.btAlignedObjectArray, ptr %this1, i32 0, i32 5
  %0 = load ptr, ptr %m_data, align 8
  %1 = load i32, ptr %n.addr, align 4
  %idxprom = sext i32 %1 to i64
  %arrayidx = getelementptr inbounds %struct.btMultibodyLink, ptr %0, i64 %idxprom
  ret ptr %arrayidx
}

; Function Attrs: mustprogress uwtable
define linkonce_odr dso_local noundef i32 @_ZNK11btMultiBody11getNumLinksEv(ptr noundef nonnull align 8 dereferenceable(640) %this) #3 comdat align 2 {
entry:
  %this.addr = alloca ptr, align 8
  store ptr %this, ptr %this.addr, align 8
  %this1 = load ptr, ptr %this.addr, align 8
  %m_links = getelementptr inbounds %class.btMultiBody, ptr %this1, i32 0, i32 14
  %call = call noundef i32 @_ZNK20btAlignedObjectArrayI15btMultibodyLinkE4sizeEv(ptr noundef nonnull align 8 dereferenceable(25) %m_links)
  ret i32 %call
}

; Function Attrs: mustprogress uwtable
define dso_local void @_ZN11btMultiBody18setBaseDynamicTypeEi(ptr noundef nonnull align 8 dereferenceable(640) %this, i32 noundef %dynamicType) #3 align 2 {
entry:
  %this.addr = alloca ptr, align 8
  %dynamicType.addr = alloca i32, align 4
  %oldFlags = alloca i32, align 4
  store ptr %this, ptr %this.addr, align 8
  store i32 %dynamicType, ptr %dynamicType.addr, align 4
  %this1 = load ptr, ptr %this.addr, align 8
  %call = call noundef ptr @_ZN11btMultiBody15getBaseColliderEv(ptr noundef nonnull align 8 dereferenceable(640) %this1)
  %tobool = icmp ne ptr %call, null
  br i1 %tobool, label %if.then, label %if.end

if.then:                                          ; preds = %entry
  %call2 = call noundef ptr @_ZN11btMultiBody15getBaseColliderEv(ptr noundef nonnull align 8 dereferenceable(640) %this1)
  %call3 = call noundef i32 @_ZNK17btCollisionObject17getCollisionFlagsEv(ptr noundef nonnull align 8 dereferenceable(372) %call2)
  store i32 %call3, ptr %oldFlags, align 4
  %0 = load i32, ptr %oldFlags, align 4
  %and = and i32 %0, -4
  store i32 %and, ptr %oldFlags, align 4
  %call4 = call noundef ptr @_ZN11btMultiBody15getBaseColliderEv(ptr noundef nonnull align 8 dereferenceable(640) %this1)
  %1 = load i32, ptr %oldFlags, align 4
  %2 = load i32, ptr %dynamicType.addr, align 4
  %or = or i32 %1, %2
  call void @_ZN17btCollisionObject17setCollisionFlagsEi(ptr noundef nonnull align 8 dereferenceable(372) %call4, i32 noundef %or)
  br label %if.end

if.end:                                           ; preds = %if.then, %entry
  ret void
}

; Function Attrs: mustprogress uwtable
define dso_local void @_ZN11btMultiBody18setLinkDynamicTypeEii(ptr noundef nonnull align 8 dereferenceable(640) %this, i32 noundef %i, i32 noundef %type) #3 align 2 {
entry:
  %this.addr = alloca ptr, align 8
  %i.addr = alloca i32, align 4
  %type.addr = alloca i32, align 4
  store ptr %this, ptr %this.addr, align 8
  store i32 %i, ptr %i.addr, align 4
  store i32 %type, ptr %type.addr, align 4
  %this1 = load ptr, ptr %this.addr, align 8
  %0 = load i32, ptr %i.addr, align 4
  %cmp = icmp eq i32 %0, -1
  br i1 %cmp, label %if.then, label %if.else

if.then:                                          ; preds = %entry
  %1 = load i32, ptr %type.addr, align 4
  call void @_ZN11btMultiBody18setBaseDynamicTypeEi(ptr noundef nonnull align 8 dereferenceable(640) %this1, i32 noundef %1)
  br label %if.end11

if.else:                                          ; preds = %entry
  %2 = load i32, ptr %i.addr, align 4
  %cmp2 = icmp sge i32 %2, 0
  br i1 %cmp2, label %land.lhs.true, label %if.end10

land.lhs.true:                                    ; preds = %if.else
  %3 = load i32, ptr %i.addr, align 4
  %call = call noundef i32 @_ZNK11btMultiBody11getNumLinksEv(ptr noundef nonnull align 8 dereferenceable(640) %this1)
  %cmp3 = icmp slt i32 %3, %call
  br i1 %cmp3, label %if.then4, label %if.end10

if.then4:                                         ; preds = %land.lhs.true
  %m_links = getelementptr inbounds %class.btMultiBody, ptr %this1, i32 0, i32 14
  %4 = load i32, ptr %i.addr, align 4
  %call5 = call noundef nonnull align 8 dereferenceable(688) ptr @_ZN20btAlignedObjectArrayI15btMultibodyLinkEixEi(ptr noundef nonnull align 8 dereferenceable(25) %m_links, i32 noundef %4)
  %m_collider = getelementptr inbounds %struct.btMultibodyLink, ptr %call5, i32 0, i32 22
  %5 = load ptr, ptr %m_collider, align 8
  %tobool = icmp ne ptr %5, null
  br i1 %tobool, label %if.then6, label %if.end

if.then6:                                         ; preds = %if.then4
  %m_links7 = getelementptr inbounds %class.btMultiBody, ptr %this1, i32 0, i32 14
  %6 = load i32, ptr %i.addr, align 4
  %call8 = call noundef nonnull align 8 dereferenceable(688) ptr @_ZN20btAlignedObjectArrayI15btMultibodyLinkEixEi(ptr noundef nonnull align 8 dereferenceable(25) %m_links7, i32 noundef %6)
  %m_collider9 = getelementptr inbounds %struct.btMultibodyLink, ptr %call8, i32 0, i32 22
  %7 = load ptr, ptr %m_collider9, align 8
  %8 = load i32, ptr %type.addr, align 4
  call void @_ZN23btMultiBodyLinkCollider14setDynamicTypeEi(ptr noundef nonnull align 8 dereferenceable(388) %7, i32 noundef %8)
  br label %if.end

if.end:                                           ; preds = %if.then6, %if.then4
  br label %if.end10

if.end10:                                         ; preds = %if.end, %land.lhs.true, %if.else
  br label %if.end11

if.end11:                                         ; preds = %if.end10, %if.then
  ret void
}