; Function Attrs: mustprogress nofree norecurse nosync nounwind willreturn memory(readwrite, inaccessiblemem: none) uwtable
define dso_local void @_ZN11btMultiBody18setLinkDynamicTypeEii(ptr nocapture noundef nonnull readonly align 8 dereferenceable(640) %this, i32 noundef %i, i32 noundef %type) local_unnamed_addr #8 align 2 {
entry:
  %cmp = icmp eq i32 %i, -1
  br i1 %cmp, label %if.then, label %if.else

if.then:                                          ; preds = %entry
  %m_baseCollider.i.i = getelementptr inbounds i8, ptr %this, i64 8
  %0 = load ptr, ptr %m_baseCollider.i.i, align 8
  %tobool.not.i = icmp eq ptr %0, null
  br i1 %tobool.not.i, label %if.end11, label %if.end11.sink.split

if.else:                                          ; preds = %entry
  %cmp2 = icmp sgt i32 %i, -1
  %m_size.i.i = getelementptr inbounds i8, ptr %this, i64 180
  %1 = load i32, ptr %m_size.i.i, align 4
  %cmp3 = icmp sgt i32 %1, %i
  %or.cond = select i1 %cmp2, i1 %cmp3, i1 false
  br i1 %or.cond, label %if.then4, label %if.end11

if.then4:                                         ; preds = %if.else
  %m_data.i = getelementptr inbounds i8, ptr %this, i64 192
  %2 = load ptr, ptr %m_data.i, align 8
  %idxprom.i = zext nneg i32 %i to i64
  %m_collider = getelementptr inbounds %struct.btMultibodyLink, ptr %2, i64 %idxprom.i, i32 22
  %3 = load ptr, ptr %m_collider, align 8
  %tobool.not = icmp eq ptr %3, null
  br i1 %tobool.not, label %if.end11, label %if.end11.sink.split

if.end11.sink.split:                              ; preds = %if.then4, %if.then
  %.sink = phi ptr [ %0, %if.then ], [ %3, %if.then4 ]
  %m_collisionFlags.i.i9 = getelementptr inbounds i8, ptr %.sink, i64 224
  %4 = load i32, ptr %m_collisionFlags.i.i9, align 8
  %and.i = and i32 %4, -4
  %or.i = or i32 %and.i, %type
  store i32 %or.i, ptr %m_collisionFlags.i.i9, align 8
  br label %if.end11

if.end11:                                         ; preds = %if.end11.sink.split, %if.then, %if.else, %if.then4
  ret void
}